(dp0
S'grid_origin'
p1
(lp2
F3.297658
aF3.626859
asS'x_points'
p3
(lp4
F3.297658
aF58.531658
aF113.765658
aF168.999658
asS'probe_result'
p5
(lp6
(lp7
F0.0
aF0.08471062654900002
aF-0.012802879406
aF-0.054829865624999974
aa(lp8
F-0.15824762003099999
aF-0.3110290969378
aF-0.173515592025
aF-0.3831273821244
aa(lp9
F-0.3498082559894
aF-0.21671980311199998
aF-0.269577201459
aF-0.25634579014500003
aa(lp10
F-0.13268774191599997
aF-0.208003410758
aF-0.29902468787299996
aF-0.136466972969
aasS'grid_len'
p11
(F165.702
F119.09299999999999
tp12
sS'probe_duration'
p13
F132.826867
sS'y_points'
p14
(lp15
F3.626859
aF43.324525666666666
aF83.02219233333332
aF122.71985899999999
as.